target datalayout = "e-m:e-p270:32:32-p271:32:32-p272:64:64-i64:64-i128:128-f80:128-n8:16:32:64-S128"
target triple = "x86_64-pc-linux-gnu"

%"struct.icu_77::PCEBuffer" = type { [16 x %"struct.icu_77::PCEI"], ptr, i32, i32 }
%"struct.icu_77::PCEI" = type { i64, i32, i32 }
%"class.icu_77::UCollationPCE" = type <{ %"struct.icu_77::PCEBuffer", ptr, i32, i8, i8, [2 x i8], i32, [4 x i8] }>
%"class.icu_77::CollationElementIterator" = type { %"class.icu_77::UObject", ptr, ptr, i32, i8, ptr, %"class.icu_77::UnicodeString" }
%"class.icu_77::UObject" = type { ptr }
%"class.icu_77::UnicodeString" = type { %"class.icu_77::Replaceable", %"union.icu_77::UnicodeString::StackBufferOrFields" }
%"class.icu_77::Replaceable" = type { %"class.icu_77::UObject" }
%"union.icu_77::UnicodeString::StackBufferOrFields" = type { %struct.anon.0, [32 x i8] }
%struct.anon.0 = type { i16, i32, i32, ptr }

; Function Attrs: mustprogress uwtable
define void @_ZN6icu_7713UCollationPCE4initERKNS_8CollatorE(ptr noundef nonnull align 8 dereferenceable(292) %0, ptr noundef nonnull align 8 dereferenceable(8) %1) #3 align 2 {
  %3 = alloca ptr, align 8
  %4 = alloca ptr, align 8
  %5 = alloca i32, align 4
  store ptr %0, ptr %3, align 8, !tbaa !37
  store ptr %1, ptr %4, align 8, !tbaa !54
  %6 = load ptr, ptr %3, align 8
  call void @llvm.lifetime.start.p0(i64 4, ptr %5) #11
  store i32 0, ptr %5, align 4, !tbaa !16
  %7 = load ptr, ptr %4, align 8, !tbaa !54
  %8 = load ptr, ptr %7, align 8, !tbaa !56
  %9 = getelementptr inbounds ptr, ptr %8, i64 24
  %10 = load ptr, ptr %9, align 8
  %11 = call noundef i32 %10(ptr noundef nonnull align 8 dereferenceable(8) %7, i32 noundef 5, ptr noundef nonnull align 4 dereferenceable(4) %5)
  %12 = getelementptr inbounds nuw %"class.icu_77::UCollationPCE", ptr %6, i32 0, i32 2
  store i32 %11, ptr %12, align 8, !tbaa !58
  %13 = load ptr, ptr %4, align 8, !tbaa !54
  %14 = load ptr, ptr %13, align 8, !tbaa !56
  %15 = getelementptr inbounds ptr, ptr %14, i64 24
  %16 = load ptr, ptr %15, align 8
  %17 = call noundef i32 %16(ptr noundef nonnull align 8 dereferenceable(8) %13, i32 noundef 1, ptr noundef nonnull align 4 dereferenceable(4) %5)
  %18 = icmp eq i32 %17, 20
  %19 = zext i1 %18 to i8
  %20 = getelementptr inbounds nuw %"class.icu_77::UCollationPCE", ptr %6, i32 0, i32 3
  store i8 %19, ptr %20, align 4, !tbaa !59
  %21 = getelementptr inbounds nuw %"class.icu_77::UCollationPCE", ptr %6, i32 0, i32 4
  store i8 0, ptr %21, align 1, !tbaa !60
  %22 = load ptr, ptr %4, align 8, !tbaa !54
  %23 = load ptr, ptr %22, align 8, !tbaa !56
  %24 = getelementptr inbounds ptr, ptr %23, i64 30
  %25 = load ptr, ptr %24, align 8
  %26 = call noundef i32 %25(ptr noundef nonnull align 8 dereferenceable(8) %22, ptr noundef nonnull align 4 dereferenceable(4) %5)
  %27 = getelementptr inbounds nuw %"class.icu_77::UCollationPCE", ptr %6, i32 0, i32 6
  store i32 %26, ptr %27, align 8, !tbaa !61
  call void @llvm.lifetime.end.p0(i64 4, ptr %5) #11
  ret void
}

; Function Attrs: mustprogress uwtable
define void @_ZN6icu_7713UCollationPCE4initEPNS_24CollationElementIteratorE(ptr noundef nonnull align 8 dereferenceable(292) %0, ptr noundef %1) #3 align 2 {
  %3 = alloca ptr, align 8
  %4 = alloca ptr, align 8
  store ptr %0, ptr %3, align 8, !tbaa !37
  store ptr %1, ptr %4, align 8, !tbaa !41
  %5 = load ptr, ptr %3, align 8
  %6 = load ptr, ptr %4, align 8, !tbaa !41
  %7 = getelementptr inbounds nuw %"class.icu_77::UCollationPCE", ptr %5, i32 0, i32 1
  store ptr %6, ptr %7, align 8, !tbaa !43
  %8 = load ptr, ptr %4, align 8, !tbaa !41
  %9 = getelementptr inbounds nuw %"class.icu_77::CollationElementIterator", ptr %8, i32 0, i32 2
  %10 = load ptr, ptr %9, align 8, !tbaa !46
  call void @_ZN6icu_7713UCollationPCE4initERKNS_8CollatorE(ptr noundef nonnull align 8 dereferenceable(292) %5, ptr noundef nonnull align 8 dereferenceable(8) %10)
  ret void
}